; Function Attrs: mustprogress uwtable
define hidden void @_ZN22symmetry_reduce_tacticC2ER11ast_manager(ptr noundef nonnull writeonly align 8 captures(none) dereferenceable(24) initializes((0, 12)) %0, ptr noundef nonnull align 8 dereferenceable(976) %1) unnamed_addr #4 align 2 personality ptr @__gxx_personality_v0 {
.noexc:
  %2 = getelementptr inbounds nuw i8, ptr %0, i64 8
  store i32 0, ptr %2, align 8, !tbaa !181
  store ptr getelementptr inbounds nuw inrange(-16, 192) (i8, ptr @_ZTV22symmetry_reduce_tactic, i64 16), ptr %0, align 8, !tbaa !154
  %3 = tail call noalias noundef ptr @_ZN6memory8allocateEm(i64 noundef 560)
  store ptr %1, ptr %3, align 8, !tbaa !153
  %4 = getelementptr inbounds nuw i8, ptr %3, i64 8
  store ptr getelementptr inbounds nuw inrange(-16, 16) (i8, ptr @_ZTV16ac_rewriter_star, i64 16), ptr %4, align 8, !tbaa !154
  %5 = getelementptr inbounds nuw i8, ptr %3, i64 544
  tail call void @_ZN12rewriter_tplI15ac_rewriter_cfgEC2ER11ast_managerbRS0_(ptr noundef nonnull align 8 dereferenceable(544) %4, ptr noundef nonnull align 8 dereferenceable(976) %1, i1 noundef zeroext false, ptr noundef nonnull align 8 dereferenceable(8) %5)
  store ptr getelementptr inbounds nuw inrange(-16, 16) (i8, ptr @_ZTV16ac_rewriter_star, i64 16), ptr %4, align 8, !tbaa !154
  store ptr %1, ptr %5, align 8, !tbaa !153
  %6 = getelementptr inbounds nuw i8, ptr %3, i64 552
  store ptr null, ptr %6, align 8, !tbaa !184
  %7 = invoke noundef ptr @_Z24mk_default_expr_replacerR11ast_managerb(ptr noundef nonnull align 8 dereferenceable(976) %1, i1 noundef zeroext false)
          to label %8 unwind label %.body

8:                                                ; preds = %.noexc
  %9 = load ptr, ptr %6, align 8, !tbaa !184
  %.not.i.i = icmp eq ptr %9, %7
  br i1 %.not.i.i, label %_ZN22symmetry_reduce_tactic3impC2ER11ast_manager.exit, label %10

10:                                               ; preds = %8
  %11 = icmp eq ptr %9, null
  br i1 %11, label %_Z7deallocI13expr_replacerEvPT_.exit.i.i, label %12

12:                                               ; preds = %10
  %13 = load ptr, ptr %9, align 8, !tbaa !154
  %14 = load ptr, ptr %13, align 8
  tail call void %14(ptr noundef nonnull align 8 dereferenceable(8) %9) #22
  invoke void @_ZN6memory10deallocateEPv(ptr noundef nonnull %9)
          to label %_Z7deallocI13expr_replacerEvPT_.exit.i.i unwind label %.body

_Z7deallocI13expr_replacerEvPT_.exit.i.i:         ; preds = %12, %10
  store ptr %7, ptr %6, align 8, !tbaa !184
  br label %_ZN22symmetry_reduce_tactic3impC2ER11ast_manager.exit

.body:                                            ; preds = %12, %.noexc
  %15 = landingpad { ptr, i32 }
          cleanup
  tail call void @_ZN10scoped_ptrI13expr_replacerED2Ev(ptr noundef nonnull align 8 dereferenceable(8) %6) #22
  tail call void @_ZN12rewriter_tplI15ac_rewriter_cfgED2Ev(ptr noundef nonnull align 8 dereferenceable(544) %4) #22
  resume { ptr, i32 } %15

_ZN22symmetry_reduce_tactic3impC2ER11ast_manager.exit: ; preds = %_Z7deallocI13expr_replacerEvPT_.exit.i.i, %8
  %16 = getelementptr inbounds nuw i8, ptr %0, i64 16
  store ptr %3, ptr %16, align 8, !tbaa !187
  ret void
}